; Function Attrs: mustprogress nofree norecurse nosync nounwind willreturn memory(write, argmem: readwrite, inaccessiblemem: none) uwtable
define hidden void @_ZN4ncnn9ParamDict3setEii(ptr noundef nonnull readonly align 8 captures(none) dereferenceable(16) %0, i32 noundef %1, i32 noundef %2) local_unnamed_addr #12 align 2 {
  %4 = getelementptr inbounds nuw i8, ptr %0, i64 8
  %5 = load ptr, ptr %4, align 8, !tbaa !21
  %6 = sext i32 %1 to i64
  %7 = getelementptr inbounds [32 x %struct.anon], ptr %5, i64 0, i64 %6
  store i32 2, ptr %7, align 8, !tbaa !24
  %8 = getelementptr inbounds [32 x %struct.anon], ptr %5, i64 0, i64 %6, i32 1
  store i32 %2, ptr %8, align 4, !tbaa !20
  ret void
}